target datalayout = "e-m:e-p270:32:32-p271:32:32-p272:64:64-i64:64-i128:128-f80:128-n8:16:32:64-S128"
target triple = "x86_64-pc-linux-gnu"

%struct.uv_pipe_s = type { ptr, ptr, i32, ptr, %struct.uv__queue, %union.anon, ptr, i32, i64, ptr, ptr, ptr, ptr, %struct.uv__io_s, %struct.uv__queue, %struct.uv__queue, ptr, i32, i32, ptr, i32, ptr }
%union.anon = type { [4 x ptr] }
%struct.uv__io_s = type { ptr, %struct.uv__queue, %struct.uv__queue, i32, i32, i32 }
%struct.uv__queue = type { ptr, ptr }
%struct.sockaddr_un = type { i16, [108 x i8] }
%union.__CONST_SOCKADDR_ARG = type { ptr }
%struct.uv_connect_s = type { ptr, i32, [6 x ptr], ptr, ptr, %struct.uv__queue }
%struct.uv_loop_s = type { ptr, i32, %struct.uv__queue, %union.anon.0, ptr, i32, i64, i32, %struct.uv__queue, %struct.uv__queue, ptr, i32, i32, %struct.uv__queue, %union.pthread_mutex_t, %struct.uv_async_s, %union.pthread_rwlock_t, ptr, %struct.uv__queue, %struct.uv__queue, %struct.uv__queue, %struct.uv__queue, %struct.uv__queue, ptr, %struct.uv__io_s, i32, %struct.anon, i64, i64, [2 x i32], %struct.uv__io_s, %struct.uv_signal_s, i32, %struct.uv__io_s, ptr, i32 }
%union.anon.0 = type { ptr }
%union.pthread_mutex_t = type { %struct.__pthread_mutex_s }
%struct.__pthread_mutex_s = type { i32, i32, i32, i32, i32, i16, i16, %struct.__pthread_internal_list }
%struct.__pthread_internal_list = type { ptr, ptr }
%struct.uv_async_s = type { ptr, ptr, i32, ptr, %struct.uv__queue, %union.anon.1, ptr, i32, ptr, %struct.uv__queue, i32 }
%union.anon.1 = type { [4 x ptr] }
%union.pthread_rwlock_t = type { %struct.__pthread_rwlock_arch_t }
%struct.__pthread_rwlock_arch_t = type { i32, i32, i32, i32, i32, i32, i32, i32, i8, [7 x i8], i64, i32 }
%struct.anon = type { ptr, i32 }
%struct.uv_signal_s = type { ptr, ptr, i32, ptr, %struct.uv__queue, %union.anon.2, ptr, i32, ptr, i32, %struct.anon.3, i32, i32 }
%union.anon.2 = type { [4 x ptr] }
%struct.anon.3 = type { ptr, ptr, ptr, i32 }

; Function Attrs: inlinehint nounwind uwtable
define internal void @uv__queue_init(ptr noundef %0) #8 {
  %2 = alloca ptr, align 8
  store ptr %0, ptr %2, align 8
  %3 = load ptr, ptr %2, align 8
  %4 = load ptr, ptr %2, align 8
  %5 = getelementptr inbounds nuw %struct.uv__queue, ptr %4, i32 0, i32 0
  store ptr %3, ptr %5, align 8
  %6 = load ptr, ptr %2, align 8
  %7 = load ptr, ptr %2, align 8
  %8 = getelementptr inbounds nuw %struct.uv__queue, ptr %7, i32 0, i32 1
  store ptr %6, ptr %8, align 8
  ret void
}

; Function Attrs: nounwind uwtable
define internal i32 @includes_nul(ptr noundef %0, i64 noundef %1) #0 {
  %3 = alloca i32, align 4
  %4 = alloca ptr, align 8
  %5 = alloca i64, align 8
  store ptr %0, ptr %4, align 8
  store i64 %1, ptr %5, align 8
  %6 = load i64, ptr %5, align 8
  %7 = icmp eq i64 %6, 0
  br i1 %7, label %8, label %9

8:                                                ; preds = %2
  store i32 0, ptr %3, align 4
  br label %19

9:                                                ; preds = %2
  %10 = load ptr, ptr %4, align 8
  %11 = getelementptr inbounds nuw i8, ptr %10, i32 1
  store ptr %11, ptr %4, align 8
  %12 = load i64, ptr %5, align 8
  %13 = add i64 %12, -1
  store i64 %13, ptr %5, align 8
  %14 = load ptr, ptr %4, align 8
  %15 = load i64, ptr %5, align 8
  %16 = call ptr @memchr(ptr noundef %14, i32 noundef 0, i64 noundef %15) #9
  %17 = icmp ne ptr null, %16
  %18 = zext i1 %17 to i32
  store i32 %18, ptr %3, align 4
  br label %19

19:                                               ; preds = %9, %8
  %20 = load i32, ptr %3, align 4
  ret i32 %20
}

; Function Attrs: nounwind uwtable
define dso_local i32 @uv_pipe_connect2(ptr noundef %0, ptr noundef %1, ptr noundef %2, i64 noundef %3, i32 noundef %4, ptr noundef %5) #0 {
  %7 = alloca i32, align 4
  %8 = alloca ptr, align 8
  %9 = alloca ptr, align 8
  %10 = alloca ptr, align 8
  %11 = alloca i64, align 8
  %12 = alloca i32, align 4
  %13 = alloca ptr, align 8
  %14 = alloca %struct.sockaddr_un, align 2
  %15 = alloca i32, align 4
  %16 = alloca i32, align 4
  %17 = alloca i32, align 4
  %18 = alloca i32, align 4
  %19 = alloca i32, align 4
  %20 = alloca %union.__CONST_SOCKADDR_ARG, align 8
  store ptr %0, ptr %8, align 8
  store ptr %1, ptr %9, align 8
  store ptr %2, ptr %10, align 8
  store i64 %3, ptr %11, align 8
  store i32 %4, ptr %12, align 4
  store ptr %5, ptr %13, align 8
  call void @llvm.lifetime.start.p0(i64 110, ptr %14) #10
  call void @llvm.lifetime.start.p0(i64 4, ptr %15) #10
  call void @llvm.lifetime.start.p0(i64 4, ptr %16) #10
  call void @llvm.lifetime.start.p0(i64 4, ptr %17) #10
  call void @llvm.lifetime.start.p0(i64 4, ptr %18) #10
  %21 = load i32, ptr %12, align 4
  %22 = and i32 %21, -2
  %23 = icmp ne i32 %22, 0
  br i1 %23, label %24, label %25

24:                                               ; preds = %6
  store i32 -22, ptr %7, align 4
  store i32 1, ptr %19, align 4
  br label %176

25:                                               ; preds = %6
  %26 = load ptr, ptr %10, align 8
  %27 = icmp eq ptr %26, null
  br i1 %27, label %28, label %29

28:                                               ; preds = %25
  store i32 -22, ptr %7, align 4
  store i32 1, ptr %19, align 4
  br label %176

29:                                               ; preds = %25
  %30 = load i64, ptr %11, align 8
  %31 = icmp eq i64 %30, 0
  br i1 %31, label %32, label %33

32:                                               ; preds = %29
  store i32 -22, ptr %7, align 4
  store i32 1, ptr %19, align 4
  br label %176

33:                                               ; preds = %29
  %34 = load ptr, ptr %10, align 8
  %35 = load i64, ptr %11, align 8
  %36 = call i32 @includes_nul(ptr noundef %34, i64 noundef %35)
  %37 = icmp ne i32 %36, 0
  br i1 %37, label %38, label %39

38:                                               ; preds = %33
  store i32 -22, ptr %7, align 4
  store i32 1, ptr %19, align 4
  br label %176

39:                                               ; preds = %33
  %40 = load i32, ptr %12, align 4
  %41 = and i32 %40, 1
  %42 = icmp ne i32 %41, 0
  br i1 %42, label %43, label %48

43:                                               ; preds = %39
  %44 = load i64, ptr %11, align 8
  %45 = icmp ugt i64 %44, 108
  br i1 %45, label %46, label %47

46:                                               ; preds = %43
  store i32 -22, ptr %7, align 4
  store i32 1, ptr %19, align 4
  br label %176

47:                                               ; preds = %43
  br label %48

48:                                               ; preds = %47, %39
  %49 = load i64, ptr %11, align 8
  %50 = icmp ugt i64 %49, 108
  br i1 %50, label %51, label %52

51:                                               ; preds = %48
  store i64 108, ptr %11, align 8
  br label %52

52:                                               ; preds = %51, %48
  %53 = load ptr, ptr %9, align 8
  %54 = getelementptr inbounds nuw %struct.uv_pipe_s, ptr %53, i32 0, i32 13
  %55 = getelementptr inbounds nuw %struct.uv__io_s, ptr %54, i32 0, i32 5
  %56 = load i32, ptr %55, align 8
  %57 = icmp eq i32 %56, -1
  %58 = zext i1 %57 to i32
  store i32 %58, ptr %15, align 4
  %59 = load i32, ptr %15, align 4
  %60 = icmp ne i32 %59, 0
  br i1 %60, label %61, label %71

61:                                               ; preds = %52
  %62 = call i32 @uv__socket(i32 noundef 1, i32 noundef 1, i32 noundef 0)
  store i32 %62, ptr %16, align 4
  %63 = load i32, ptr %16, align 4
  %64 = icmp slt i32 %63, 0
  br i1 %64, label %65, label %66

65:                                               ; preds = %61
  br label %135

66:                                               ; preds = %61
  %67 = load i32, ptr %16, align 4
  %68 = load ptr, ptr %9, align 8
  %69 = getelementptr inbounds nuw %struct.uv_pipe_s, ptr %68, i32 0, i32 13
  %70 = getelementptr inbounds nuw %struct.uv__io_s, ptr %69, i32 0, i32 5
  store i32 %67, ptr %70, align 8
  br label %71

71:                                               ; preds = %66, %52
  call void @llvm.memset.p0.i64(ptr align 2 %14, i8 0, i64 110, i1 false)
  %72 = getelementptr inbounds nuw %struct.sockaddr_un, ptr %14, i32 0, i32 1
  %73 = load ptr, ptr %10, align 8
  %74 = load i64, ptr %11, align 8
  call void @llvm.memcpy.p0.p0.i64(ptr align 2 %72, ptr align 1 %73, i64 %74, i1 false)
  %75 = getelementptr inbounds nuw %struct.sockaddr_un, ptr %14, i32 0, i32 0
  store i16 1, ptr %75, align 2
  %76 = load ptr, ptr %10, align 8
  %77 = load i8, ptr %76, align 1
  %78 = sext i8 %77 to i32
  %79 = icmp eq i32 %78, 0
  br i1 %79, label %80, label %84

80:                                               ; preds = %71
  %81 = load i64, ptr %11, align 8
  %82 = add i64 2, %81
  %83 = trunc i64 %82 to i32
  store i32 %83, ptr %18, align 4
  br label %85

84:                                               ; preds = %71
  store i32 110, ptr %18, align 4
  br label %85

85:                                               ; preds = %84, %80
  br label %86

86:                                               ; preds = %102, %85
  %87 = load ptr, ptr %9, align 8
  %88 = getelementptr inbounds nuw %struct.uv_pipe_s, ptr %87, i32 0, i32 13
  %89 = getelementptr inbounds nuw %struct.uv__io_s, ptr %88, i32 0, i32 5
  %90 = load i32, ptr %89, align 8
  store ptr %14, ptr %20, align 8
  %91 = load i32, ptr %18, align 4
  %92 = getelementptr inbounds nuw %union.__CONST_SOCKADDR_ARG, ptr %20, i32 0, i32 0
  %93 = load ptr, ptr %92, align 8
  %94 = call i32 @connect(i32 noundef %90, ptr %93, i32 noundef %91)
  store i32 %94, ptr %17, align 4
  br label %95

95:                                               ; preds = %86
  %96 = load i32, ptr %17, align 4
  %97 = icmp eq i32 %96, -1
  br i1 %97, label %98, label %102

98:                                               ; preds = %95
  %99 = call ptr @__errno_location() #11
  %100 = load i32, ptr %99, align 4
  %101 = icmp eq i32 %100, 4
  br label %102

102:                                              ; preds = %98, %95
  %103 = phi i1 [ false, %95 ], [ %101, %98 ]
  br i1 %103, label %86, label %104

104:                                              ; preds = %102
  %105 = load i32, ptr %17, align 4
  %106 = icmp eq i32 %105, -1
  br i1 %106, label %107, label %115

107:                                              ; preds = %104
  %108 = call ptr @__errno_location() #11
  %109 = load i32, ptr %108, align 4
  %110 = icmp ne i32 %109, 115
  br i1 %110, label %111, label %115

111:                                              ; preds = %107
  %112 = call ptr @__errno_location() #11
  %113 = load i32, ptr %112, align 4
  %114 = sub nsw i32 0, %113
  store i32 %114, ptr %16, align 4
  br label %135

115:                                              ; preds = %107, %104
  store i32 0, ptr %16, align 4
  %116 = load i32, ptr %15, align 4
  %117 = icmp ne i32 %116, 0
  br i1 %117, label %118, label %125

118:                                              ; preds = %115
  %119 = load ptr, ptr %9, align 8
  %120 = load ptr, ptr %9, align 8
  %121 = getelementptr inbounds nuw %struct.uv_pipe_s, ptr %120, i32 0, i32 13
  %122 = getelementptr inbounds nuw %struct.uv__io_s, ptr %121, i32 0, i32 5
  %123 = load i32, ptr %122, align 8
  %124 = call i32 @uv__stream_open(ptr noundef %119, i32 noundef %123, i32 noundef 49152)
  store i32 %124, ptr %16, align 4
  br label %125

125:                                              ; preds = %118, %115
  %126 = load i32, ptr %16, align 4
  %127 = icmp eq i32 %126, 0
  br i1 %127, label %128, label %134

128:                                              ; preds = %125
  %129 = load ptr, ptr %9, align 8
  %130 = getelementptr inbounds nuw %struct.uv_pipe_s, ptr %129, i32 0, i32 1
  %131 = load ptr, ptr %130, align 8
  %132 = load ptr, ptr %9, align 8
  %133 = getelementptr inbounds nuw %struct.uv_pipe_s, ptr %132, i32 0, i32 13
  call void @uv__io_start(ptr noundef %131, ptr noundef %133, i32 noundef 4)
  br label %134

134:                                              ; preds = %128, %125
  br label %135

135:                                              ; preds = %134, %111, %65
  %136 = load i32, ptr %16, align 4
  %137 = load ptr, ptr %9, align 8
  %138 = getelementptr inbounds nuw %struct.uv_pipe_s, ptr %137, i32 0, i32 17
  store i32 %136, ptr %138, align 8
  %139 = load ptr, ptr %8, align 8
  %140 = load ptr, ptr %9, align 8
  %141 = getelementptr inbounds nuw %struct.uv_pipe_s, ptr %140, i32 0, i32 11
  store ptr %139, ptr %141, align 8
  br label %142

142:                                              ; preds = %135
  br label %143

143:                                              ; preds = %142
  %144 = load ptr, ptr %8, align 8
  %145 = getelementptr inbounds nuw %struct.uv_connect_s, ptr %144, i32 0, i32 1
  store i32 2, ptr %145, align 8
  br label %146

146:                                              ; preds = %143
  br label %147

147:                                              ; preds = %146
  br label %148

148:                                              ; preds = %147
  %149 = load ptr, ptr %9, align 8
  %150 = getelementptr inbounds nuw %struct.uv_pipe_s, ptr %149, i32 0, i32 1
  %151 = load ptr, ptr %150, align 8
  %152 = getelementptr inbounds nuw %struct.uv_loop_s, ptr %151, i32 0, i32 3
  %153 = load i32, ptr %152, align 8
  %154 = add i32 %153, 1
  store i32 %154, ptr %152, align 8
  br label %155

155:                                              ; preds = %148
  br label %156

156:                                              ; preds = %155
  br label %157

157:                                              ; preds = %156
  br label %158

158:                                              ; preds = %157
  %159 = load ptr, ptr %9, align 8
  %160 = load ptr, ptr %8, align 8
  %161 = getelementptr inbounds nuw %struct.uv_connect_s, ptr %160, i32 0, i32 4
  store ptr %159, ptr %161, align 8
  %162 = load ptr, ptr %13, align 8
  %163 = load ptr, ptr %8, align 8
  %164 = getelementptr inbounds nuw %struct.uv_connect_s, ptr %163, i32 0, i32 3
  store ptr %162, ptr %164, align 8
  %165 = load ptr, ptr %8, align 8
  %166 = getelementptr inbounds nuw %struct.uv_connect_s, ptr %165, i32 0, i32 5
  call void @uv__queue_init(ptr noundef %166)
  %167 = load i32, ptr %16, align 4
  %168 = icmp ne i32 %167, 0
  br i1 %168, label %169, label %175

169:                                              ; preds = %158
  %170 = load ptr, ptr %9, align 8
  %171 = getelementptr inbounds nuw %struct.uv_pipe_s, ptr %170, i32 0, i32 1
  %172 = load ptr, ptr %171, align 8
  %173 = load ptr, ptr %9, align 8
  %174 = getelementptr inbounds nuw %struct.uv_pipe_s, ptr %173, i32 0, i32 13
  call void @uv__io_feed(ptr noundef %172, ptr noundef %174)
  br label %175

175:                                              ; preds = %169, %158
  store i32 0, ptr %7, align 4
  store i32 1, ptr %19, align 4
  br label %176

176:                                              ; preds = %175, %46, %38, %32, %28, %24
  call void @llvm.lifetime.end.p0(i64 4, ptr %18) #10
  call void @llvm.lifetime.end.p0(i64 4, ptr %17) #10
  call void @llvm.lifetime.end.p0(i64 4, ptr %16) #10
  call void @llvm.lifetime.end.p0(i64 4, ptr %15) #10
  call void @llvm.lifetime.end.p0(i64 110, ptr %14) #10
  %177 = load i32, ptr %7, align 4
  ret i32 %177
}