; Function Attrs: nounwind uwtable
define dso_local range(i32 -22, 1) i32 @uv_pipe_connect2(ptr noundef %0, ptr noundef %1, ptr noundef readonly %2, i64 noundef %3, i32 noundef %4, ptr noundef %5) local_unnamed_addr #0 {
  %7 = alloca %struct.sockaddr_un, align 2
  call void @llvm.lifetime.start.p0(i64 110, ptr nonnull %7) #12
  %.not = icmp ugt i32 %4, 1
  %8 = icmp eq ptr %2, null
  %or.cond53 = or i1 %8, %.not
  %9 = icmp eq i64 %3, 0
  %or.cond54 = or i1 %9, %or.cond53
  br i1 %or.cond54, label %62, label %includes_nul.exit

includes_nul.exit:                                ; preds = %6
  %10 = getelementptr inbounds nuw i8, ptr %2, i64 1
  %11 = add i64 %3, -1
  %12 = tail call ptr @memchr(ptr noundef nonnull readonly %10, i32 noundef 0, i64 noundef %11) #13
  %.not56 = icmp eq ptr %12, null
  br i1 %.not56, label %13, label %62

13:                                               ; preds = %includes_nul.exit
  %14 = icmp ne i32 %4, 0
  %15 = icmp ugt i64 %3, 108
  %or.cond = and i1 %15, %14
  br i1 %or.cond, label %62, label %16

16:                                               ; preds = %13
  %spec.store.select = tail call i64 @llvm.umin.i64(i64 %3, i64 108)
  %17 = getelementptr inbounds nuw i8, ptr %1, i64 136
  %18 = getelementptr inbounds nuw i8, ptr %1, i64 184
  %19 = load i32, ptr %18, align 8
  %20 = icmp eq i32 %19, -1
  br i1 %20, label %21, label %25

21:                                               ; preds = %16
  %22 = tail call i32 @uv__socket(i32 noundef 1, i32 noundef 1, i32 noundef 0) #12
  %23 = icmp slt i32 %22, 0
  br i1 %23, label %47, label %24

24:                                               ; preds = %21
  store i32 %22, ptr %18, align 8
  br label %25

25:                                               ; preds = %24, %16
  %26 = getelementptr inbounds nuw i8, ptr %7, i64 2
  call void @llvm.memset.p0.i64(ptr noundef nonnull align 2 dereferenceable(110) %26, i8 0, i64 108, i1 false)
  %27 = getelementptr inbounds nuw i8, ptr %7, i64 2
  call void @llvm.memcpy.p0.p0.i64(ptr nonnull align 2 %27, ptr nonnull align 1 %2, i64 %spec.store.select, i1 false)
  store i16 1, ptr %7, align 2
  %28 = load i8, ptr %2, align 1
  %29 = icmp eq i8 %28, 0
  %30 = trunc nuw nsw i64 %spec.store.select to i32
  %31 = add nuw nsw i32 %30, 2
  %.042 = select i1 %29, i32 %31, i32 110
  br label %32

32:                                               ; preds = %36, %25
  %33 = load i32, ptr %18, align 8
  %34 = call i32 @connect(i32 noundef %33, ptr nonnull %7, i32 noundef %.042) #12
  %35 = icmp eq i32 %34, -1
  br i1 %35, label %36, label %.critedge52

36:                                               ; preds = %32
  %37 = tail call ptr @__errno_location() #14
  %38 = load i32, ptr %37, align 4
  switch i32 %38, label %39 [
    i32 4, label %32
    i32 115, label %.critedge52
  ]

39:                                               ; preds = %36
  %40 = sub nsw i32 0, %38
  br label %47

.critedge52:                                      ; preds = %36, %32
  br i1 %20, label %41, label %.thread

41:                                               ; preds = %.critedge52
  %42 = load i32, ptr %18, align 8
  %43 = call i32 @uv__stream_open(ptr noundef nonnull %1, i32 noundef %42, i32 noundef 49152) #12
  %44 = icmp eq i32 %43, 0
  br i1 %44, label %.thread, label %47

.thread:                                          ; preds = %.critedge52, %41
  %45 = getelementptr inbounds nuw i8, ptr %1, i64 8
  %46 = load ptr, ptr %45, align 8
  call void @uv__io_start(ptr noundef %46, ptr noundef nonnull %17, i32 noundef 4) #12
  br label %47

47:                                               ; preds = %41, %.thread, %21, %39
  %.043 = phi i32 [ %22, %21 ], [ %40, %39 ], [ 0, %.thread ], [ %43, %41 ]
  %48 = getelementptr inbounds nuw i8, ptr %1, i64 232
  store i32 %.043, ptr %48, align 8
  %49 = getelementptr inbounds nuw i8, ptr %1, i64 120
  store ptr %0, ptr %49, align 8
  %50 = getelementptr inbounds nuw i8, ptr %0, i64 8
  store i32 2, ptr %50, align 8
  %51 = getelementptr inbounds nuw i8, ptr %1, i64 8
  %52 = load ptr, ptr %51, align 8
  %53 = getelementptr inbounds nuw i8, ptr %52, i64 32
  %54 = load i32, ptr %53, align 8
  %55 = add i32 %54, 1
  store i32 %55, ptr %53, align 8
  %56 = getelementptr inbounds nuw i8, ptr %0, i64 72
  store ptr %1, ptr %56, align 8
  %57 = getelementptr inbounds nuw i8, ptr %0, i64 64
  store ptr %5, ptr %57, align 8
  %58 = getelementptr inbounds nuw i8, ptr %0, i64 80
  store ptr %58, ptr %58, align 8
  %59 = getelementptr inbounds nuw i8, ptr %0, i64 88
  store ptr %58, ptr %59, align 8
  %.not51 = icmp eq i32 %.043, 0
  br i1 %.not51, label %62, label %60

60:                                               ; preds = %47
  %61 = load ptr, ptr %51, align 8
  call void @uv__io_feed(ptr noundef %61, ptr noundef nonnull %17) #12
  br label %62

62:                                               ; preds = %47, %60, %13, %includes_nul.exit, %6
  %.0 = phi i32 [ -22, %6 ], [ -22, %includes_nul.exit ], [ -22, %13 ], [ 0, %60 ], [ 0, %47 ]
  call void @llvm.lifetime.end.p0(i64 110, ptr nonnull %7) #12
  ret i32 %.0
}